; Function Attrs: mustprogress uwtable
define internal void @"_ZNSt17_Function_handlerIFvPKcEZN9V3Options13parseOptsListEP8FileLineRKNSt7__cxx1112basic_stringIcSt11char_traitsIcESaIcEEEiPPcE4$_63E9_M_invokeERKSt9_Any_dataOS1_"(ptr noundef nonnull readonly align 8 captures(none) dereferenceable(16) %0, ptr noundef nonnull readonly align 8 captures(none) dereferenceable(8) %1) #6 align 2 {
  %.val = load ptr, ptr %0, align 8, !tbaa !812
  %3 = getelementptr inbounds nuw i8, ptr %0, i64 8
  %.val2 = load ptr, ptr %3, align 8
  %.val3 = load ptr, ptr %1, align 8, !tbaa !4
  %4 = tail call i32 @strcmp(ptr noundef nonnull dereferenceable(1) %.val3, ptr noundef nonnull dereferenceable(6) @.str.619) #39
  %.not.i.i.i = icmp eq i32 %4, 0
  br i1 %.not.i.i.i, label %"_ZSt10__invoke_rIvRZN9V3Options13parseOptsListEP8FileLineRKNSt7__cxx1112basic_stringIcSt11char_traitsIcESaIcEEEiPPcE4$_63JPKcEENSt9enable_ifIX16is_invocable_r_vIT_T0_DpT1_EESI_E4typeEOSJ_DpOSK_.exit", label %5

5:                                                ; preds = %2
  %6 = tail call i32 @strcmp(ptr noundef nonnull dereferenceable(1) %.val3, ptr noundef nonnull dereferenceable(6) @.str.620) #39
  %.not4.i.i.i = icmp eq i32 %6, 0
  br i1 %.not4.i.i.i, label %"_ZSt10__invoke_rIvRZN9V3Options13parseOptsListEP8FileLineRKNSt7__cxx1112basic_stringIcSt11char_traitsIcESaIcEEEiPPcE4$_63JPKcEENSt9enable_ifIX16is_invocable_r_vIT_T0_DpT1_EESI_E4typeEOSJ_DpOSK_.exit", label %7

7:                                                ; preds = %5
  %8 = tail call noundef nonnull align 8 dereferenceable(112) ptr @_ZN7V3Error11v3errorPrepB5cxx11E11V3ErrorCode(i8 2)
  %9 = tail call noundef nonnull align 8 dereferenceable(112) ptr @_ZN7V3Error10v3errorStrB5cxx11Ev()
  %10 = tail call noundef nonnull align 8 dereferenceable(8) ptr @_ZStlsISt11char_traitsIcEERSt13basic_ostreamIcT_ES5_PKc(ptr noundef nonnull align 8 dereferenceable(8) %9, ptr noundef nonnull @.str.621)
  %11 = tail call noundef nonnull align 8 dereferenceable(8) ptr @_ZStlsISt11char_traitsIcEERSt13basic_ostreamIcT_ES5_PKc(ptr noundef nonnull align 8 dereferenceable(8) %10, ptr noundef nonnull %.val3)
  %12 = tail call noundef nonnull align 8 dereferenceable(8) ptr @_ZStlsISt11char_traitsIcEERSt13basic_ostreamIcT_ES5_PKc(ptr noundef nonnull align 8 dereferenceable(8) %11, ptr noundef nonnull @.str.14)
  tail call void @_ZN8FileLine15v3errorEndFatalERNSt7__cxx1119basic_ostringstreamIcSt11char_traitsIcESaIcEEE(ptr noundef nonnull align 8 dereferenceable(40) %.val2, ptr noundef nonnull align 8 dereferenceable(112) %12) #42
  unreachable

"_ZSt10__invoke_rIvRZN9V3Options13parseOptsListEP8FileLineRKNSt7__cxx1112basic_stringIcSt11char_traitsIcESaIcEEEiPPcE4$_63JPKcEENSt9enable_ifIX16is_invocable_r_vIT_T0_DpT1_EESI_E4typeEOSJ_DpOSK_.exit": ; preds = %2, %5
  %.sink1.i.i.i = phi i64 [ 811, %2 ], [ 841, %5 ]
  %13 = getelementptr inbounds nuw i8, ptr %.val, i64 %.sink1.i.i.i
  store i8 1, ptr %13, align 1, !tbaa !17
  ret void
}